; Function Attrs: mustprogress nofree norecurse nosync nounwind willreturn memory(argmem: read) uwtable
define noundef zeroext i1 @_ZNK8proxygen11SessionPool5emptyEv(ptr noundef nonnull readonly align 8 dereferenceable(136) %this) local_unnamed_addr #6 align 2 personality ptr @__gxx_personality_v0 {
entry:
  %m_header.i = getelementptr inbounds i8, ptr %this, i64 48
  %0 = load ptr, ptr %m_header.i, align 8
  %tobool.not.i = icmp eq ptr %0, null
  %cmp.i = icmp eq ptr %0, %m_header.i
  %1 = or i1 %tobool.not.i, %cmp.i
  br i1 %1, label %land.lhs.true, label %land.end

land.lhs.true:                                    ; preds = %entry
  %m_header.i21 = getelementptr inbounds i8, ptr %this, i64 72
  %2 = load ptr, ptr %m_header.i21, align 8
  %tobool.not.i1 = icmp eq ptr %2, null
  %cmp.i2 = icmp eq ptr %2, %m_header.i21
  %3 = or i1 %tobool.not.i1, %cmp.i2
  br i1 %3, label %land.rhs, label %land.end

land.rhs:                                         ; preds = %land.lhs.true
  %m_header.i25 = getelementptr inbounds i8, ptr %this, i64 96
  %4 = load ptr, ptr %m_header.i25, align 8
  %tobool.not.i3 = icmp eq ptr %4, null
  %cmp.i4 = icmp eq ptr %4, %m_header.i25
  %5 = or i1 %tobool.not.i3, %cmp.i4
  br label %land.end

land.end:                                         ; preds = %land.rhs, %land.lhs.true, %entry
  %6 = phi i1 [ false, %land.lhs.true ], [ false, %entry ], [ %5, %land.rhs ]
  ret i1 %6
}